target datalayout = "e-m:e-p270:32:32-p271:32:32-p272:64:64-i64:64-i128:128-f80:128-n8:16:32:64-S128"
target triple = "x86_64-pc-linux-gnu"

%union.pthread_attr_t = type { i64, [48 x i8] }

@destroy_job = internal global i32 0, align 4
@.str.15 = private unnamed_addr constant [11 x i8] c"allocate.c\00", align 1
@__func__._signal_while_allocating = private unnamed_addr constant [25 x i8] c"_signal_while_allocating\00", align 1
@.str.16 = private unnamed_addr constant [22 x i8] c"pthread_attr_init: %m\00", align 1
@.str.17 = private unnamed_addr constant [26 x i8] c"pthread_attr_setscope: %m\00", align 1
@.str.18 = private unnamed_addr constant [30 x i8] c"pthread_attr_setstacksize: %m\00", align 1
@.str.19 = private unnamed_addr constant [35 x i8] c"%s: pthread_attr_setdetachstate %m\00", align 1
@.str.20 = private unnamed_addr constant [28 x i8] c"%s: pthread_create error %m\00", align 1
@.str.21 = private unnamed_addr constant [55 x i8] c"pthread_attr_destroy failed, possible memory leak!: %m\00", align 1

; Function Attrs: nounwind uwtable
define internal void @_signal_while_allocating(i32 noundef %0) #0 {
  %2 = alloca i32, align 4
  %3 = alloca ptr, align 8
  %4 = alloca i32, align 4
  %5 = alloca i64, align 8
  %6 = alloca %union.pthread_attr_t, align 8
  %7 = alloca i32, align 4
  %8 = alloca i32, align 4
  %9 = alloca i32, align 4
  store i32 %0, ptr %2, align 4
  call void @llvm.lifetime.start.p0(i64 8, ptr %3) #7
  %10 = load i32, ptr %2, align 4
  %11 = icmp eq i32 %10, 18
  br i1 %11, label %12, label %13

12:                                               ; preds = %1
  store i32 1, ptr %4, align 4
  br label %72

13:                                               ; preds = %1
  store i32 1, ptr @destroy_job, align 4
  %14 = call ptr @slurm_xcalloc(i64 noundef 1, i64 noundef 4, i1 noundef zeroext true, i1 noundef zeroext false, ptr noundef @.str.15, i32 noundef 131, ptr noundef @__func__._signal_while_allocating)
  store ptr %14, ptr %3, align 8
  %15 = load i32, ptr %2, align 4
  %16 = load ptr, ptr %3, align 8
  store i32 %15, ptr %16, align 4
  br label %17

17:                                               ; preds = %13
  call void @llvm.lifetime.start.p0(i64 8, ptr %5) #7
  call void @llvm.lifetime.start.p0(i64 56, ptr %6) #7
  call void @llvm.lifetime.start.p0(i64 4, ptr %7) #7
  br label %18

18:                                               ; preds = %17
  call void @llvm.lifetime.start.p0(i64 4, ptr %8) #7
  %19 = call i32 @pthread_attr_init(ptr noundef %6) #7
  store i32 %19, ptr %8, align 4
  %20 = load i32, ptr %8, align 4
  %21 = icmp ne i32 %20, 0
  br i1 %21, label %22, label %25

22:                                               ; preds = %18
  %23 = load i32, ptr %8, align 4
  %24 = call ptr @__errno_location() #10
  store i32 %23, ptr %24, align 4
  call void (ptr, ...) @fatal(ptr noundef @.str.16) #8
  unreachable

25:                                               ; preds = %18
  %26 = call i32 @pthread_attr_setscope(ptr noundef %6, i32 noundef 0) #7
  store i32 %26, ptr %8, align 4
  %27 = load i32, ptr %8, align 4
  %28 = icmp ne i32 %27, 0
  br i1 %28, label %29, label %33

29:                                               ; preds = %25
  %30 = load i32, ptr %8, align 4
  %31 = call ptr @__errno_location() #10
  store i32 %30, ptr %31, align 4
  %32 = call i32 (ptr, ...) @error(ptr noundef @.str.17)
  br label %33

33:                                               ; preds = %29, %25
  %34 = call i32 @pthread_attr_setstacksize(ptr noundef %6, i64 noundef 1048576) #7
  store i32 %34, ptr %8, align 4
  %35 = load i32, ptr %8, align 4
  %36 = icmp ne i32 %35, 0
  br i1 %36, label %37, label %41

37:                                               ; preds = %33
  %38 = load i32, ptr %8, align 4
  %39 = call ptr @__errno_location() #10
  store i32 %38, ptr %39, align 4
  %40 = call i32 (ptr, ...) @error(ptr noundef @.str.18)
  br label %41

41:                                               ; preds = %37, %33
  call void @llvm.lifetime.end.p0(i64 4, ptr %8) #7
  br label %42

42:                                               ; preds = %41
  br label %43

43:                                               ; preds = %42
  %44 = call i32 @pthread_attr_setdetachstate(ptr noundef %6, i32 noundef 1) #7
  store i32 %44, ptr %7, align 4
  %45 = load i32, ptr %7, align 4
  %46 = icmp ne i32 %45, 0
  br i1 %46, label %47, label %50

47:                                               ; preds = %43
  %48 = load i32, ptr %7, align 4
  %49 = call ptr @__errno_location() #10
  store i32 %48, ptr %49, align 4
  call void (ptr, ...) @fatal(ptr noundef @.str.19, ptr noundef @__func__._signal_while_allocating) #8
  unreachable

50:                                               ; preds = %43
  %51 = load ptr, ptr %3, align 8
  %52 = call i32 @pthread_create(ptr noundef %5, ptr noundef %6, ptr noundef @_safe_signal_while_allocating, ptr noundef %51) #7
  store i32 %52, ptr %7, align 4
  %53 = load i32, ptr %7, align 4
  %54 = icmp ne i32 %53, 0
  br i1 %54, label %55, label %58

55:                                               ; preds = %50
  %56 = load i32, ptr %7, align 4
  %57 = call ptr @__errno_location() #10
  store i32 %56, ptr %57, align 4
  call void (ptr, ...) @fatal(ptr noundef @.str.20, ptr noundef @__func__._signal_while_allocating) #8
  unreachable

58:                                               ; preds = %50
  br label %59

59:                                               ; preds = %58
  call void @llvm.lifetime.start.p0(i64 4, ptr %9) #7
  %60 = call i32 @pthread_attr_destroy(ptr noundef %6) #7
  store i32 %60, ptr %9, align 4
  %61 = load i32, ptr %9, align 4
  %62 = icmp ne i32 %61, 0
  br i1 %62, label %63, label %67

63:                                               ; preds = %59
  %64 = load i32, ptr %9, align 4
  %65 = call ptr @__errno_location() #10
  store i32 %64, ptr %65, align 4
  %66 = call i32 (ptr, ...) @error(ptr noundef @.str.21)
  br label %67

67:                                               ; preds = %63, %59
  call void @llvm.lifetime.end.p0(i64 4, ptr %9) #7
  br label %68

68:                                               ; preds = %67
  br label %69

69:                                               ; preds = %68
  call void @llvm.lifetime.end.p0(i64 4, ptr %7) #7
  call void @llvm.lifetime.end.p0(i64 56, ptr %6) #7
  call void @llvm.lifetime.end.p0(i64 8, ptr %5) #7
  br label %70

70:                                               ; preds = %69
  br label %71

71:                                               ; preds = %70
  store i32 0, ptr %4, align 4
  br label %72

72:                                               ; preds = %71, %12
  call void @llvm.lifetime.end.p0(i64 8, ptr %3) #7
  %73 = load i32, ptr %4, align 4
  switch i32 %73, label %75 [
    i32 0, label %74
    i32 1, label %74
  ]

74:                                               ; preds = %72, %72
  ret void

75:                                               ; preds = %72
  unreachable
}