; Function Attrs: nounwind uwtable
define internal void @_signal_while_allocating(i32 noundef %0) #0 {
  %2 = alloca i64, align 8
  %3 = alloca %union.pthread_attr_t, align 8
  %4 = icmp eq i32 %0, 18
  br i1 %4, label %34, label %5

5:                                                ; preds = %1
  store i32 1, ptr @destroy_job, align 4
  %6 = tail call ptr @slurm_xcalloc(i64 noundef 1, i64 noundef 4, i1 noundef zeroext true, i1 noundef zeroext false, ptr noundef nonnull @.str.15, i32 noundef 131, ptr noundef nonnull @__func__._signal_while_allocating) #9
  store i32 %0, ptr %6, align 4
  call void @llvm.lifetime.start.p0(i64 8, ptr nonnull %2) #9
  call void @llvm.lifetime.start.p0(i64 56, ptr nonnull %3) #9
  %7 = call i32 @pthread_attr_init(ptr noundef nonnull %3) #9
  %.not = icmp eq i32 %7, 0
  br i1 %.not, label %10, label %8

8:                                                ; preds = %5
  %9 = tail call ptr @__errno_location() #11
  store i32 %7, ptr %9, align 4
  call void (ptr, ...) @fatal(ptr noundef nonnull @.str.16) #10
  unreachable

10:                                               ; preds = %5
  %11 = call i32 @pthread_attr_setscope(ptr noundef nonnull %3, i32 noundef 0) #9
  %.not21 = icmp eq i32 %11, 0
  br i1 %.not21, label %15, label %12

12:                                               ; preds = %10
  %13 = tail call ptr @__errno_location() #11
  store i32 %11, ptr %13, align 4
  %14 = call i32 (ptr, ...) @error(ptr noundef nonnull @.str.17) #9
  br label %15

15:                                               ; preds = %12, %10
  %16 = call i32 @pthread_attr_setstacksize(ptr noundef nonnull %3, i64 noundef 1048576) #9
  %.not22 = icmp eq i32 %16, 0
  br i1 %.not22, label %20, label %17

17:                                               ; preds = %15
  %18 = tail call ptr @__errno_location() #11
  store i32 %16, ptr %18, align 4
  %19 = call i32 (ptr, ...) @error(ptr noundef nonnull @.str.18) #9
  br label %20

20:                                               ; preds = %17, %15
  %21 = call i32 @pthread_attr_setdetachstate(ptr noundef nonnull %3, i32 noundef 1) #9
  %.not23 = icmp eq i32 %21, 0
  br i1 %.not23, label %24, label %22

22:                                               ; preds = %20
  %23 = tail call ptr @__errno_location() #11
  store i32 %21, ptr %23, align 4
  call void (ptr, ...) @fatal(ptr noundef nonnull @.str.19, ptr noundef nonnull @__func__._signal_while_allocating) #10
  unreachable

24:                                               ; preds = %20
  %25 = call i32 @pthread_create(ptr noundef nonnull %2, ptr noundef nonnull %3, ptr noundef nonnull @_safe_signal_while_allocating, ptr noundef nonnull %6) #9
  %.not24 = icmp eq i32 %25, 0
  br i1 %.not24, label %28, label %26

26:                                               ; preds = %24
  %27 = tail call ptr @__errno_location() #11
  store i32 %25, ptr %27, align 4
  call void (ptr, ...) @fatal(ptr noundef nonnull @.str.20, ptr noundef nonnull @__func__._signal_while_allocating) #10
  unreachable

28:                                               ; preds = %24
  %29 = call i32 @pthread_attr_destroy(ptr noundef nonnull %3) #9
  %.not25 = icmp eq i32 %29, 0
  br i1 %.not25, label %33, label %30

30:                                               ; preds = %28
  %31 = tail call ptr @__errno_location() #11
  store i32 %29, ptr %31, align 4
  %32 = call i32 (ptr, ...) @error(ptr noundef nonnull @.str.21) #9
  br label %33

33:                                               ; preds = %30, %28
  call void @llvm.lifetime.end.p0(i64 56, ptr nonnull %3) #9
  call void @llvm.lifetime.end.p0(i64 8, ptr nonnull %2) #9
  br label %34

34:                                               ; preds = %1, %33
  ret void
}